; Function Attrs: nofree nounwind memory(readwrite, inaccessiblemem: none) uwtable
define dso_local range(i32 -1, 1) i32 @repo_loose_object_map_oid(ptr noundef readonly captures(none) %0, ptr noundef readonly captures(none) %1, ptr noundef readnone %2, ptr noundef writeonly captures(none) %3) local_unnamed_addr #4 {
  %5 = alloca %struct.object_id, align 8
  %6 = alloca %struct.object_id, align 8
  %7 = getelementptr inbounds nuw i8, ptr %0, i64 16
  %8 = load ptr, ptr %7, align 8, !tbaa !35
  %.01829 = load ptr, ptr %8, align 8, !tbaa !36
  %.not30 = icmp eq ptr %.01829, null
  br i1 %.not30, label %.loopexit, label %.lr.ph

.lr.ph:                                           ; preds = %4
  %9 = getelementptr inbounds nuw i8, ptr %0, i64 408
  br label %10

10:                                               ; preds = %.lr.ph, %55
  %.01831 = phi ptr [ %.01829, %.lr.ph ], [ %.018, %55 ]
  %11 = getelementptr inbounds nuw i8, ptr %.01831, i64 48
  %12 = load ptr, ptr %11, align 8, !tbaa !38
  %.not21 = icmp eq ptr %12, null
  br i1 %.not21, label %55, label %13

13:                                               ; preds = %10
  %14 = load ptr, ptr %9, align 8, !tbaa !13
  %15 = icmp eq ptr %2, %14
  %.in.idx = select i1 %15, i64 0, i64 8
  %.in = getelementptr inbounds nuw i8, ptr %12, i64 %.in.idx
  %16 = load ptr, ptr %.in, align 8, !tbaa !79
  call void @llvm.lifetime.start.p0(i64 36, ptr nonnull %6)
  call void @llvm.memcpy.p0.p0.i64(ptr noundef nonnull align 8 dereferenceable(36) %6, ptr noundef nonnull align 4 dereferenceable(36) %1, i64 36, i1 false)
  %17 = load i32, ptr %16, align 8, !tbaa !68
  %.not.i = icmp eq i32 %17, 0
  br i1 %.not.i, label %kh_get_oid_map.exit, label %18

18:                                               ; preds = %13
  %19 = add i32 %17, -1
  %.val.i = load i32, ptr %6, align 8
  %20 = and i32 %.val.i, %19
  %21 = getelementptr inbounds nuw i8, ptr %16, i64 16
  %22 = load ptr, ptr %21, align 8, !tbaa !71
  %23 = getelementptr inbounds nuw i8, ptr %16, i64 24
  br label %24

24:                                               ; preds = %.critedge2.i, %18
  %.027.i = phi i32 [ %20, %18 ], [ %41, %.critedge2.i ]
  %.0.i = phi i32 [ 0, %18 ], [ %39, %.critedge2.i ]
  %25 = lshr i32 %.027.i, 4
  %26 = zext nneg i32 %25 to i64
  %27 = getelementptr inbounds nuw i32, ptr %22, i64 %26
  %28 = load i32, ptr %27, align 4, !tbaa !50
  %29 = shl i32 %.027.i, 1
  %30 = and i32 %29, 30
  %31 = lshr i32 %28, %30
  %32 = and i32 %31, 2
  %.not30.i = icmp eq i32 %32, 0
  br i1 %.not30.i, label %33, label %.critedge.i

33:                                               ; preds = %24
  %34 = and i32 %31, 1
  %.not31.i = icmp eq i32 %34, 0
  br i1 %.not31.i, label %35, label %.critedge2.i

35:                                               ; preds = %33
  %36 = load ptr, ptr %23, align 8, !tbaa !72
  %37 = zext i32 %.027.i to i64
  %38 = getelementptr inbounds nuw %struct.object_id, ptr %36, i64 %37
  call void @llvm.lifetime.start.p0(i64 36, ptr nonnull %5) #15
  call void @llvm.memcpy.p0.p0.i64(ptr noundef nonnull align 8 dereferenceable(36) %5, ptr noundef nonnull align 4 dereferenceable(36) %38, i64 36, i1 false), !tbaa.struct !80
  %bcmp.i.i.i = call i32 @bcmp(ptr noundef nonnull readonly align 8 dereferenceable(32) %5, ptr noundef nonnull readonly align 8 dereferenceable(32) %6, i64 32)
  %.not.i.i.not.i = icmp eq i32 %bcmp.i.i.i, 0
  call void @llvm.lifetime.end.p0(i64 36, ptr nonnull %5) #15
  br i1 %.not.i.i.not.i, label %.critedge.i, label %.critedge2.i

.critedge2.i:                                     ; preds = %35, %33
  %39 = add i32 %.0.i, 1
  %40 = add i32 %39, %.027.i
  %41 = and i32 %40, %19
  %42 = icmp eq i32 %41, %20
  br i1 %42, label %kh_get_oid_map.exit.thread, label %24, !llvm.loop !81

kh_get_oid_map.exit.thread:                       ; preds = %.critedge2.i
  call void @llvm.lifetime.end.p0(i64 36, ptr nonnull %6)
  br label %55

.critedge.i:                                      ; preds = %35, %24
  %43 = shl nuw i32 3, %30
  %44 = and i32 %43, %28
  %.not33.i = icmp eq i32 %44, 0
  %spec.select.i = select i1 %.not33.i, i32 %.027.i, i32 %17
  br label %kh_get_oid_map.exit

kh_get_oid_map.exit:                              ; preds = %13, %.critedge.i
  %.1.i = phi i32 [ 0, %13 ], [ %spec.select.i, %.critedge.i ]
  call void @llvm.lifetime.end.p0(i64 36, ptr nonnull %6)
  %45 = icmp ult i32 %.1.i, %17
  br i1 %45, label %46, label %55

46:                                               ; preds = %kh_get_oid_map.exit
  %47 = getelementptr inbounds nuw i8, ptr %16, i64 32
  %48 = load ptr, ptr %47, align 8, !tbaa !73
  %49 = zext i32 %.1.i to i64
  %50 = getelementptr inbounds nuw ptr, ptr %48, i64 %49
  %51 = load ptr, ptr %50, align 8, !tbaa !74
  tail call void @llvm.memcpy.p0.p0.i64(ptr noundef nonnull align 4 dereferenceable(32) %3, ptr noundef nonnull readonly align 4 dereferenceable(32) %51, i64 32, i1 false)
  %52 = getelementptr inbounds nuw i8, ptr %51, i64 32
  %53 = load i32, ptr %52, align 4, !tbaa !82
  %54 = getelementptr inbounds nuw i8, ptr %3, i64 32
  store i32 %53, ptr %54, align 4, !tbaa !82
  br label %.loopexit

55:                                               ; preds = %10, %kh_get_oid_map.exit, %kh_get_oid_map.exit.thread
  %.018 = load ptr, ptr %.01831, align 8, !tbaa !36
  %.not = icmp eq ptr %.018, null
  br i1 %.not, label %.loopexit, label %10, !llvm.loop !84

.loopexit:                                        ; preds = %55, %4, %46
  %.2 = phi i32 [ 0, %46 ], [ -1, %4 ], [ -1, %55 ]
  ret i32 %.2
}